; Function Attrs: nounwind uwtable
define internal fastcc noalias nonnull ptr @_init_l_Lean_Parser_initFn____x40_Lean_Parser___hyg_7____closed__269() unnamed_addr #0 {
  tail call void @lean_inc_heartbeat() #4
  %1 = tail call noalias ptr @mi_malloc_small(i64 noundef 24) #4
  %2 = icmp eq ptr %1, null
  br i1 %2, label %3, label %lean_alloc_closure.exit

3:                                                ; preds = %0
  tail call void @lean_internal_panic_out_of_memory() #5
  unreachable

lean_alloc_closure.exit:                          ; preds = %0
  %4 = getelementptr inbounds nuw i8, ptr %1, i64 4
  store i32 1, ptr %1, align 4, !tbaa !8
  store i32 -184549352, ptr %4, align 4
  %5 = getelementptr inbounds nuw i8, ptr %1, i64 8
  store ptr @l_Lean_PrettyPrinter_Parenthesizer_interpolatedStr_parenthesizer, ptr %5, align 8, !tbaa !4
  %6 = getelementptr inbounds nuw i8, ptr %1, i64 16
  store i16 6, ptr %6, align 8, !tbaa !14
  %7 = getelementptr inbounds nuw i8, ptr %1, i64 18
  store i16 0, ptr %7, align 2, !tbaa !14
  ret ptr %1
}